(lp1
(lp2
V../data/clipData/LC80270322015185LGN00/LC80270322015185LGN00_bands_432_clipped_r}deQaysvFaf{Aow~@.TIF
p3
aV../data/clipData/LC80270322015185LGN00/LC80270322015185LGN00_bands_321_clipped_r}deQaysvFaf{Aow~@.TIF
p4
aV../data/clipData/LC80270322015185LGN00/LC80270322015185LGN00_NDVI_clipped_r}deQaysvFaf{Aow~@.TIF
p5
aV../data/clipData/LC80280322015192LGN00/LC80280322015192LGN00_bands_432_clipped_r}deQaysvFaf{Aow~@.TIF
p6
aV../data/clipData/LC80280322015192LGN00/LC80280322015192LGN00_bands_321_clipped_r}deQaysvFaf{Aow~@.TIF
p7
aV../data/clipData/LC80280322015192LGN00/LC80280322015192LGN00_NDVI_clipped_r}deQaysvFaf{Aow~@.TIF
p8
aa(lp9
V../data/clipData/LC80250312015203LGN00/LC80250312015203LGN00_bands_432_clipped_zzxiPsr~{FatqBkz~@.TIF
p10
aV../data/clipData/LC80250312015203LGN00/LC80250312015203LGN00_bands_321_clipped_zzxiPsr~{FatqBkz~@.TIF
p11
aV../data/clipData/LC80250312015203LGN00/LC80250312015203LGN00_NDVI_clipped_zzxiPsr~{FatqBkz~@.TIF
p12
aV../data/clipData/LC80240312015212LGN00/LC80240312015212LGN00_bands_432_clipped_zzxiPsr~{FatqBkz~@.TIF
p13
aV../data/clipData/LC80240312015212LGN00/LC80240312015212LGN00_bands_321_clipped_zzxiPsr~{FatqBkz~@.TIF
p14
aV../data/clipData/LC80240312015212LGN00/LC80240312015212LGN00_NDVI_clipped_zzxiPsr~{FatqBkz~@.TIF
p15
aa(lp16
V../data/clipData/LC80250312015203LGN00/LC80250312015203LGN00_bands_432_clipped_jqtlPi~g{FwjqBcvr@.TIF
p17
aV../data/clipData/LC80250312015203LGN00/LC80250312015203LGN00_bands_321_clipped_jqtlPi~g{FwjqBcvr@.TIF
p18
aV../data/clipData/LC80250312015203LGN00/LC80250312015203LGN00_NDVI_clipped_jqtlPi~g{FwjqBcvr@.TIF
p19
aa(lp20
V../data/clipData/LC80250322015203LGN00/LC80250322015203LGN00_bands_432_clipped_lyxnPizluFkmuBsrtA.TIF
p21
aV../data/clipData/LC80250322015203LGN00/LC80250322015203LGN00_bands_321_clipped_lyxnPizluFkmuBsrtA.TIF
p22
aV../data/clipData/LC80250322015203LGN00/LC80250322015203LGN00_NDVI_clipped_lyxnPizluFkmuBsrtA.TIF
p23
aa(lp24
V../data/clipData/LC80250312015203LGN00/LC80250312015203LGN00_bands_432_clipped_djkmPa_uyFykhBorcA.TIF
p25
aV../data/clipData/LC80250312015203LGN00/LC80250312015203LGN00_bands_321_clipped_djkmPa_uyFykhBorcA.TIF
p26
aV../data/clipData/LC80250312015203LGN00/LC80250312015203LGN00_NDVI_clipped_djkmPa_uyFykhBorcA.TIF
p27
aa(lp28
V../data/clipData/LC80250312015203LGN00/LC80250312015203LGN00_bands_432_clipped_rjooP}my{FeozAwutA.TIF
p29
aV../data/clipData/LC80250312015203LGN00/LC80250312015203LGN00_bands_321_clipped_rjooP}my{FeozAwutA.TIF
p30
aV../data/clipData/LC80250312015203LGN00/LC80250312015203LGN00_NDVI_clipped_rjooP}my{FeozAwutA.TIF
p31
aa(lp32
V../data/clipData/LC80250312015203LGN00/LC80250312015203LGN00_bands_432_clipped_hkepPyifzFulyAklcA.TIF
p33
aV../data/clipData/LC80250312015203LGN00/LC80250312015203LGN00_bands_321_clipped_hkepPyifzFulyAklcA.TIF
p34
aV../data/clipData/LC80250312015203LGN00/LC80250312015203LGN00_NDVI_clipped_hkepPyifzFulyAklcA.TIF
p35
aa(lp36
V../data/clipData/LC80270322015185LGN00/LC80270322015185LGN00_bands_432_clipped_xffhQypsxFun`B_qq@.TIF
p37
aV../data/clipData/LC80270322015185LGN00/LC80270322015185LGN00_bands_321_clipped_xffhQypsxFun`B_qq@.TIF
p38
aV../data/clipData/LC80270322015185LGN00/LC80270322015185LGN00_NDVI_clipped_xffhQypsxFun`B_qq@.TIF
p39
aV../data/clipData/LC80280322015192LGN00/LC80280322015192LGN00_bands_432_clipped_xffhQypsxFun`B_qq@.TIF
p40
aV../data/clipData/LC80280322015192LGN00/LC80280322015192LGN00_bands_321_clipped_xffhQypsxFun`B_qq@.TIF
p41
aV../data/clipData/LC80280322015192LGN00/LC80280322015192LGN00_NDVI_clipped_xffhQypsxFun`B_qq@.TIF
p42
aa(lp43
V../data/clipData/LC80270322015185LGN00/LC80270322015185LGN00_bands_432_clipped_lighQ}ztvFagdBew}@.TIF
p44
aV../data/clipData/LC80270322015185LGN00/LC80270322015185LGN00_bands_321_clipped_lighQ}ztvFagdBew}@.TIF
p45
aV../data/clipData/LC80270322015185LGN00/LC80270322015185LGN00_NDVI_clipped_lighQ}ztvFagdBew}@.TIF
p46
aV../data/clipData/LC80280322015192LGN00/LC80280322015192LGN00_bands_432_clipped_lighQ}ztvFagdBew}@.TIF
p47
aV../data/clipData/LC80280322015192LGN00/LC80280322015192LGN00_bands_321_clipped_lighQ}ztvFagdBew}@.TIF
p48
aV../data/clipData/LC80280322015192LGN00/LC80280322015192LGN00_NDVI_clipped_lighQ}ztvFagdBew}@.TIF
p49
aa(lp50
V../data/clipData/LC80280312015160LGN00/LC80280312015160LGN00_bands_432_clipped_|y`iQw{ezFc}gDefcA.TIF
p51
aV../data/clipData/LC80280312015160LGN00/LC80280312015160LGN00_bands_321_clipped_|y`iQw{ezFc}gDefcA.TIF
p52
aV../data/clipData/LC80280312015160LGN00/LC80280312015160LGN00_NDVI_clipped_|y`iQw{ezFc}gDefcA.TIF
p53
aa(lp54
V../data/clipData/LC80280312015160LGN00/LC80280312015160LGN00_bands_432_clipped_~dxiQ{si|Fof|BcieA.TIF
p55
aV../data/clipData/LC80280312015160LGN00/LC80280312015160LGN00_bands_321_clipped_~dxiQ{si|Fof|BcieA.TIF
p56
aV../data/clipData/LC80280312015160LGN00/LC80280312015160LGN00_NDVI_clipped_~dxiQ{si|Fof|BcieA.TIF
p57
aa(lp58
V../data/clipData/LC80290302015199LGN00/LC80290302015199LGN00_bands_432_clipped_rrllQ_t{dGwajCwqcA.TIF
p59
aV../data/clipData/LC80290302015199LGN00/LC80290302015199LGN00_bands_321_clipped_rrllQ_t{dGwajCwqcA.TIF
p60
aV../data/clipData/LC80290302015199LGN00/LC80290302015199LGN00_NDVI_clipped_rrllQ_t{dGwajCwqcA.TIF
p61
aV../data/clipData/LC80280302015160LGN00/LC80280302015160LGN00_bands_432_clipped_rrllQ_t{dGwajCwqcA.TIF
p62
aV../data/clipData/LC80280302015160LGN00/LC80280302015160LGN00_bands_321_clipped_rrllQ_t{dGwajCwqcA.TIF
p63
aV../data/clipData/LC80280302015160LGN00/LC80280302015160LGN00_NDVI_clipped_rrllQ_t{dGwajCwqcA.TIF
p64
aa(lp65
V../data/clipData/LC80290302015199LGN00/LC80290302015199LGN00_bands_432_clipped_rxrlQ_u_gG}`pCynn@.TIF
p66
aV../data/clipData/LC80290302015199LGN00/LC80290302015199LGN00_bands_321_clipped_rxrlQ_u_gG}`pCynn@.TIF
p67
aV../data/clipData/LC80290302015199LGN00/LC80290302015199LGN00_NDVI_clipped_rxrlQ_u_gG}`pCynn@.TIF
p68
aV../data/clipData/LC80280302015160LGN00/LC80280302015160LGN00_bands_432_clipped_rxrlQ_u_gG}`pCynn@.TIF
p69
aV../data/clipData/LC80280302015160LGN00/LC80280302015160LGN00_bands_321_clipped_rxrlQ_u_gG}`pCynn@.TIF
p70
aV../data/clipData/LC80280302015160LGN00/LC80280302015160LGN00_NDVI_clipped_rxrlQ_u_gG}`pCynn@.TIF
p71
aa(lp72
V../data/clipData/LC80290302015199LGN00/LC80290302015199LGN00_bands_432_clipped_b|ylQ{rwbGapwCqgcA.TIF
p73
aV../data/clipData/LC80290302015199LGN00/LC80290302015199LGN00_bands_321_clipped_b|ylQ{rwbGapwCqgcA.TIF
p74
aV../data/clipData/LC80290302015199LGN00/LC80290302015199LGN00_NDVI_clipped_b|ylQ{rwbGapwCqgcA.TIF
p75
aV../data/clipData/LC80280302015160LGN00/LC80280302015160LGN00_bands_432_clipped_b|ylQ{rwbGapwCqgcA.TIF
p76
aV../data/clipData/LC80280302015160LGN00/LC80280302015160LGN00_bands_321_clipped_b|ylQ{rwbGapwCqgcA.TIF
p77
aV../data/clipData/LC80280302015160LGN00/LC80280302015160LGN00_NDVI_clipped_b|ylQ{rwbGapwCqgcA.TIF
p78
aV../data/clipData/LC80280312015160LGN00/LC80280312015160LGN00_bands_432_clipped_b|ylQ{rwbGapwCqgcA.TIF
p79
aV../data/clipData/LC80280312015160LGN00/LC80280312015160LGN00_bands_321_clipped_b|ylQ{rwbGapwCqgcA.TIF
p80
aV../data/clipData/LC80280312015160LGN00/LC80280312015160LGN00_NDVI_clipped_b|ylQ{rwbGapwCqgcA.TIF
p81
aa(lp82
V../data/clipData/LC80270312015201LGN00/LC80270312015201LGN00_bands_432_clipped_rom{PadfzFmlyAqtcA.TIF
p83
aV../data/clipData/LC80270312015201LGN00/LC80270312015201LGN00_bands_321_clipped_rom{PadfzFmlyAqtcA.TIF
p84
aV../data/clipData/LC80270312015201LGN00/LC80270312015201LGN00_NDVI_clipped_rom{PadfzFmlyAqtcA.TIF
p85
aV../data/clipData/LC80260312015210LGN00/LC80260312015210LGN00_bands_432_clipped_rom{PadfzFmlyAqtcA.TIF
p86
aV../data/clipData/LC80260312015210LGN00/LC80260312015210LGN00_bands_321_clipped_rom{PadfzFmlyAqtcA.TIF
p87
aV../data/clipData/LC80260312015210LGN00/LC80260312015210LGN00_NDVI_clipped_rom{PadfzFmlyAqtcA.TIF
p88
aV../data/clipData/LC80260322015210LGN00/LC80260322015210LGN00_bands_432_clipped_rom{PadfzFmlyAqtcA.TIF
p89
aV../data/clipData/LC80260322015210LGN00/LC80260322015210LGN00_bands_321_clipped_rom{PadfzFmlyAqtcA.TIF
p90
aV../data/clipData/LC80260322015210LGN00/LC80260322015210LGN00_NDVI_clipped_rom{PadfzFmlyAqtcA.TIF
p91
aa(lp92
V../data/clipData/LC80270312015201LGN00/LC80270312015201LGN00_bands_432_clipped_rkr{Pazd|F}e~AwriA.TIF
p93
aV../data/clipData/LC80270312015201LGN00/LC80270312015201LGN00_bands_321_clipped_rkr{Pazd|F}e~AwriA.TIF
p94
aV../data/clipData/LC80270312015201LGN00/LC80270312015201LGN00_NDVI_clipped_rkr{Pazd|F}e~AwriA.TIF
p95
aV../data/clipData/LC80260312015210LGN00/LC80260312015210LGN00_bands_432_clipped_rkr{Pazd|F}e~AwriA.TIF
p96
aV../data/clipData/LC80260312015210LGN00/LC80260312015210LGN00_bands_321_clipped_rkr{Pazd|F}e~AwriA.TIF
p97
aV../data/clipData/LC80260312015210LGN00/LC80260312015210LGN00_NDVI_clipped_rkr{Pazd|F}e~AwriA.TIF
p98
aa(lp99
V../data/clipData/LC80270312015201LGN00/LC80270312015201LGN00_bands_432_clipped_l|kcQwgi|FoukAideA.TIF
p100
aV../data/clipData/LC80270312015201LGN00/LC80270312015201LGN00_bands_321_clipped_l|kcQwgi|FoukAideA.TIF
p101
aV../data/clipData/LC80270312015201LGN00/LC80270312015201LGN00_NDVI_clipped_l|kcQwgi|FoukAideA.TIF
p102
aV../data/clipData/LC80280312015160LGN00/LC80280312015160LGN00_bands_432_clipped_l|kcQwgi|FoukAideA.TIF
p103
aV../data/clipData/LC80280312015160LGN00/LC80280312015160LGN00_bands_321_clipped_l|kcQwgi|FoukAideA.TIF
p104
aV../data/clipData/LC80280312015160LGN00/LC80280312015160LGN00_NDVI_clipped_l|kcQwgi|FoukAideA.TIF
p105
aa(lp106
V../data/clipData/LC80270312015201LGN00/LC80270312015201LGN00_bands_432_clipped_nzgaQydi|FijaBqfeA.TIF
p107
aV../data/clipData/LC80270312015201LGN00/LC80270312015201LGN00_bands_321_clipped_nzgaQydi|FijaBqfeA.TIF
p108
aV../data/clipData/LC80270312015201LGN00/LC80270312015201LGN00_NDVI_clipped_nzgaQydi|FijaBqfeA.TIF
p109
aa(lp110
V../data/clipData/LC80280312015160LGN00/LC80280312015160LGN00_bands_432_clipped_lhckQsko~FiseCwucA.TIF
p111
aV../data/clipData/LC80280312015160LGN00/LC80280312015160LGN00_bands_321_clipped_lhckQsko~FiseCwucA.TIF
p112
aV../data/clipData/LC80280312015160LGN00/LC80280312015160LGN00_NDVI_clipped_lhckQsko~FiseCwucA.TIF
p113
aa(lp114
V../data/clipData/LC80270322015185LGN00/LC80270322015185LGN00_bands_432_clipped_hwkbQw~rvF}lxAkl_A.TIF
p115
aV../data/clipData/LC80270322015185LGN00/LC80270322015185LGN00_bands_321_clipped_hwkbQw~rvF}lxAkl_A.TIF
p116
aV../data/clipData/LC80270322015185LGN00/LC80270322015185LGN00_NDVI_clipped_hwkbQw~rvF}lxAkl_A.TIF
p117
aa(lp118
V../data/clipData/LC80270322015185LGN00/LC80270322015185LGN00_bands_432_clipped_fvkbQ_dsxFymxAcsq@.TIF
p119
aV../data/clipData/LC80270322015185LGN00/LC80270322015185LGN00_bands_321_clipped_fvkbQ_dsxFymxAcsq@.TIF
p120
aV../data/clipData/LC80270322015185LGN00/LC80270322015185LGN00_NDVI_clipped_fvkbQ_dsxFymxAcsq@.TIF
p121
aa(lp122
V../data/clipData/LC80270322015185LGN00/LC80270322015185LGN00_bands_432_clipped_pzdeQclsxFyixAetq@.TIF
p123
aV../data/clipData/LC80270322015185LGN00/LC80270322015185LGN00_bands_321_clipped_pzdeQclsxFyixAetq@.TIF
p124
aV../data/clipData/LC80270322015185LGN00/LC80270322015185LGN00_NDVI_clipped_pzdeQclsxFyixAetq@.TIF
p125
aV../data/clipData/LC80280312015160LGN00/LC80280312015160LGN00_bands_432_clipped_pzdeQclsxFyixAetq@.TIF
p126
aV../data/clipData/LC80280312015160LGN00/LC80280312015160LGN00_bands_321_clipped_pzdeQclsxFyixAetq@.TIF
p127
aV../data/clipData/LC80280312015160LGN00/LC80280312015160LGN00_NDVI_clipped_pzdeQclsxFyixAetq@.TIF
p128
aV../data/clipData/LC80280322015192LGN00/LC80280322015192LGN00_bands_432_clipped_pzdeQclsxFyixAetq@.TIF
p129
aV../data/clipData/LC80280322015192LGN00/LC80280322015192LGN00_bands_321_clipped_pzdeQclsxFyixAetq@.TIF
p130
aV../data/clipData/LC80280322015192LGN00/LC80280322015192LGN00_NDVI_clipped_pzdeQclsxFyixAetq@.TIF
p131
aa(lp132
V../data/clipData/LC80270312015201LGN00/LC80270312015201LGN00_bands_432_clipped_rf_aQaoezF{uxAuwbA.TIF
p133
aV../data/clipData/LC80270312015201LGN00/LC80270312015201LGN00_bands_321_clipped_rf_aQaoezF{uxAuwbA.TIF
p134
aV../data/clipData/LC80270312015201LGN00/LC80270312015201LGN00_NDVI_clipped_rf_aQaoezF{uxAuwbA.TIF
p135
aa(lp136
V../data/clipData/LC80270312015201LGN00/LC80270312015201LGN00_bands_432_clipped_hbxcQqtezFs~wAaybA.TIF
p137
aV../data/clipData/LC80270312015201LGN00/LC80270312015201LGN00_bands_321_clipped_hbxcQqtezFs~wAaybA.TIF
p138
aV../data/clipData/LC80270312015201LGN00/LC80270312015201LGN00_NDVI_clipped_hbxcQqtezFs~wAaybA.TIF
p139
aV../data/clipData/LC80280312015160LGN00/LC80280312015160LGN00_bands_432_clipped_hbxcQqtezFs~wAaybA.TIF
p140
aV../data/clipData/LC80280312015160LGN00/LC80280312015160LGN00_bands_321_clipped_hbxcQqtezFs~wAaybA.TIF
p141
aV../data/clipData/LC80280312015160LGN00/LC80280312015160LGN00_NDVI_clipped_hbxcQqtezFs~wAaybA.TIF
p142
aa(lp143
V../data/clipData/LC80270322015185LGN00/LC80270322015185LGN00_bands_432_clipped_jgy|PatrxFkoxAoyr@.TIF
p144
aV../data/clipData/LC80270322015185LGN00/LC80270322015185LGN00_bands_321_clipped_jgy|PatrxFkoxAoyr@.TIF
p145
aV../data/clipData/LC80270322015185LGN00/LC80270322015185LGN00_NDVI_clipped_jgy|PatrxFkoxAoyr@.TIF
p146
aV../data/clipData/LC80260322015210LGN00/LC80260322015210LGN00_bands_432_clipped_jgy|PatrxFkoxAoyr@.TIF
p147
aV../data/clipData/LC80260322015210LGN00/LC80260322015210LGN00_bands_321_clipped_jgy|PatrxFkoxAoyr@.TIF
p148
aV../data/clipData/LC80260322015210LGN00/LC80260322015210LGN00_NDVI_clipped_jgy|PatrxFkoxAoyr@.TIF
p149
aa(lp150
V../data/clipData/LC80270322015185LGN00/LC80270322015185LGN00_bands_432_clipped_hlr_QeurxFcgxAs{q@.TIF
p151
aV../data/clipData/LC80270322015185LGN00/LC80270322015185LGN00_bands_321_clipped_hlr_QeurxFcgxAs{q@.TIF
p152
aV../data/clipData/LC80270322015185LGN00/LC80270322015185LGN00_NDVI_clipped_hlr_QeurxFcgxAs{q@.TIF
p153
aa(lp154
V../data/clipData/LC80270322015185LGN00/LC80270322015185LGN00_bands_432_clipped_xly|PqrsvFiuxAaq~@.TIF
p155
aV../data/clipData/LC80270322015185LGN00/LC80270322015185LGN00_bands_321_clipped_xly|PqrsvFiuxAaq~@.TIF
p156
aV../data/clipData/LC80270322015185LGN00/LC80270322015185LGN00_NDVI_clipped_xly|PqrsvFiuxAaq~@.TIF
p157
aV../data/clipData/LC80260322015210LGN00/LC80260322015210LGN00_bands_432_clipped_xly|PqrsvFiuxAaq~@.TIF
p158
aV../data/clipData/LC80260322015210LGN00/LC80260322015210LGN00_bands_321_clipped_xly|PqrsvFiuxAaq~@.TIF
p159
aV../data/clipData/LC80260322015210LGN00/LC80260322015210LGN00_NDVI_clipped_xly|PqrsvFiuxAaq~@.TIF
p160
aa(lp161
V../data/clipData/LC80270322015185LGN00/LC80270322015185LGN00_bands_432_clipped_dor_Qo`svFyfxAmc_A.TIF
p162
aV../data/clipData/LC80270322015185LGN00/LC80270322015185LGN00_bands_321_clipped_dor_Qo`svFyfxAmc_A.TIF
p163
aV../data/clipData/LC80270322015185LGN00/LC80270322015185LGN00_NDVI_clipped_dor_Qo`svFyfxAmc_A.TIF
p164
aV../data/clipData/LC80260322015210LGN00/LC80260322015210LGN00_bands_432_clipped_dor_Qo`svFyfxAmc_A.TIF
p165
aV../data/clipData/LC80260322015210LGN00/LC80260322015210LGN00_bands_321_clipped_dor_Qo`svFyfxAmc_A.TIF
p166
aV../data/clipData/LC80260322015210LGN00/LC80260322015210LGN00_NDVI_clipped_dor_Qo`svFyfxAmc_A.TIF
p167
aa(lp168
V../data/clipData/LC80270312015201LGN00/LC80270312015201LGN00_bands_432_clipped_nre~P_kezFemwAcldA.TIF
p169
aV../data/clipData/LC80270312015201LGN00/LC80270312015201LGN00_bands_321_clipped_nre~P_kezFemwAcldA.TIF
p170
aV../data/clipData/LC80270312015201LGN00/LC80270312015201LGN00_NDVI_clipped_nre~P_kezFemwAcldA.TIF
p171
aV../data/clipData/LC80260322015210LGN00/LC80260322015210LGN00_bands_432_clipped_nre~P_kezFemwAcldA.TIF
p172
aV../data/clipData/LC80260322015210LGN00/LC80260322015210LGN00_bands_321_clipped_nre~P_kezFemwAcldA.TIF
p173
aV../data/clipData/LC80260322015210LGN00/LC80260322015210LGN00_NDVI_clipped_nre~P_kezFemwAcldA.TIF
p174
aa(lp175
V../data/clipData/LC80290312015199LGN00/LC80290312015199LGN00_bands_432_clipped_zn~kQals`GsbaDwocA.TIF
p176
aV../data/clipData/LC80290312015199LGN00/LC80290312015199LGN00_bands_321_clipped_zn~kQals`GsbaDwocA.TIF
p177
aV../data/clipData/LC80290312015199LGN00/LC80290312015199LGN00_NDVI_clipped_zn~kQals`GsbaDwocA.TIF
p178
aV../data/clipData/LC80280312015160LGN00/LC80280312015160LGN00_bands_432_clipped_zn~kQals`GsbaDwocA.TIF
p179
aV../data/clipData/LC80280312015160LGN00/LC80280312015160LGN00_bands_321_clipped_zn~kQals`GsbaDwocA.TIF
p180
aV../data/clipData/LC80280312015160LGN00/LC80280312015160LGN00_NDVI_clipped_zn~kQals`GsbaDwocA.TIF
p181
aa(lp182
V../data/clipData/LC80270312015201LGN00/LC80270312015201LGN00_bands_432_clipped_xem~P}`i|Fiw~AukeA.TIF
p183
aV../data/clipData/LC80270312015201LGN00/LC80270312015201LGN00_bands_321_clipped_xem~P}`i|Fiw~AukeA.TIF
p184
aV../data/clipData/LC80270312015201LGN00/LC80270312015201LGN00_NDVI_clipped_xem~P}`i|Fiw~AukeA.TIF
p185
aa(lp186
V../data/clipData/LC80270312015201LGN00/LC80270312015201LGN00_bands_432_clipped_fuffQali|Fs`dBeeeA.TIF
p187
aV../data/clipData/LC80270312015201LGN00/LC80270312015201LGN00_bands_321_clipped_fuffQali|Fs`dBeeeA.TIF
p188
aV../data/clipData/LC80270312015201LGN00/LC80270312015201LGN00_NDVI_clipped_fuffQali|Fs`dBeeeA.TIF
p189
aV../data/clipData/LC80280312015160LGN00/LC80280312015160LGN00_bands_432_clipped_fuffQali|Fs`dBeeeA.TIF
p190
aV../data/clipData/LC80280312015160LGN00/LC80280312015160LGN00_bands_321_clipped_fuffQali|Fs`dBeeeA.TIF
p191
aV../data/clipData/LC80280312015160LGN00/LC80280312015160LGN00_NDVI_clipped_fuffQali|Fs`dBeeeA.TIF
p192
aa(lp193
V../data/clipData/LC80270312015201LGN00/LC80270312015201LGN00_bands_432_clipped_nyp|Pu~r`G{kbBoccA.TIF
p194
aV../data/clipData/LC80270312015201LGN00/LC80270312015201LGN00_bands_321_clipped_nyp|Pu~r`G{kbBoccA.TIF
p195
aV../data/clipData/LC80270312015201LGN00/LC80270312015201LGN00_NDVI_clipped_nyp|Pu~r`G{kbBoccA.TIF
p196
aV../data/clipData/LC80260312015210LGN00/LC80260312015210LGN00_bands_432_clipped_nyp|Pu~r`G{kbBoccA.TIF
p197
aV../data/clipData/LC80260312015210LGN00/LC80260312015210LGN00_bands_321_clipped_nyp|Pu~r`G{kbBoccA.TIF
p198
aV../data/clipData/LC80260312015210LGN00/LC80260312015210LGN00_NDVI_clipped_nyp|Pu~r`G{kbBoccA.TIF
p199
aa(lp200
V../data/clipData/LC80270312015201LGN00/LC80270312015201LGN00_bands_432_clipped_t~l_Qu}r`Gc~bBsdtA.TIF
p201
aV../data/clipData/LC80270312015201LGN00/LC80270312015201LGN00_bands_321_clipped_t~l_Qu}r`Gc~bBsdtA.TIF
p202
aV../data/clipData/LC80270312015201LGN00/LC80270312015201LGN00_NDVI_clipped_t~l_Qu}r`Gc~bBsdtA.TIF
p203
aa(lp204
V../data/clipData/LC80280312015160LGN00/LC80280312015160LGN00_bands_432_clipped_jqjgQ}gs`Gq|pA{qcA.TIF
p205
aV../data/clipData/LC80280312015160LGN00/LC80280312015160LGN00_bands_321_clipped_jqjgQ}gs`Gq|pA{qcA.TIF
p206
aV../data/clipData/LC80280312015160LGN00/LC80280312015160LGN00_NDVI_clipped_jqjgQ}gs`Gq|pA{qcA.TIF
p207
aa(lp208
V../data/clipData/LC80270312015201LGN00/LC80270312015201LGN00_bands_432_clipped_bjq`Q}io~Fk{yAaxbA.TIF
p209
aV../data/clipData/LC80270312015201LGN00/LC80270312015201LGN00_bands_321_clipped_bjq`Q}io~Fk{yAaxbA.TIF
p210
aV../data/clipData/LC80270312015201LGN00/LC80270312015201LGN00_NDVI_clipped_bjq`Q}io~Fk{yAaxbA.TIF
p211
aa(lp212
V../data/clipData/LC80270312015201LGN00/LC80270312015201LGN00_bands_432_clipped_hoeeQsas`GeyfBawcA.TIF
p213
aV../data/clipData/LC80270312015201LGN00/LC80270312015201LGN00_bands_321_clipped_hoeeQsas`GeyfBawcA.TIF
p214
aV../data/clipData/LC80270312015201LGN00/LC80270312015201LGN00_NDVI_clipped_hoeeQsas`GeyfBawcA.TIF
p215
aV../data/clipData/LC80280312015160LGN00/LC80280312015160LGN00_bands_432_clipped_hoeeQsas`GeyfBawcA.TIF
p216
aV../data/clipData/LC80280312015160LGN00/LC80280312015160LGN00_bands_321_clipped_hoeeQsas`GeyfBawcA.TIF
p217
aV../data/clipData/LC80280312015160LGN00/LC80280312015160LGN00_NDVI_clipped_hoeeQsas`GeyfBawcA.TIF
p218
aa(lp219
V../data/clipData/LC80270312015201LGN00/LC80270312015201LGN00_bands_432_clipped_~ykcQofo~FotyAq~bA.TIF
p220
aV../data/clipData/LC80270312015201LGN00/LC80270312015201LGN00_bands_321_clipped_~ykcQofo~FotyAq~bA.TIF
p221
aV../data/clipData/LC80270312015201LGN00/LC80270312015201LGN00_NDVI_clipped_~ykcQofo~FotyAq~bA.TIF
p222
aV../data/clipData/LC80280312015160LGN00/LC80280312015160LGN00_bands_432_clipped_~ykcQofo~FotyAq~bA.TIF
p223
aV../data/clipData/LC80280312015160LGN00/LC80280312015160LGN00_bands_321_clipped_~ykcQofo~FotyAq~bA.TIF
p224
aV../data/clipData/LC80280312015160LGN00/LC80280312015160LGN00_NDVI_clipped_~ykcQofo~FotyAq~bA.TIF
p225
aa(lp226
V../data/clipData/LC80270312015201LGN00/LC80270312015201LGN00_bands_432_clipped_n_ibQ_~r`GeadByqcA.TIF
p227
aV../data/clipData/LC80270312015201LGN00/LC80270312015201LGN00_bands_321_clipped_n_ibQ_~r`GeadByqcA.TIF
p228
aV../data/clipData/LC80270312015201LGN00/LC80270312015201LGN00_NDVI_clipped_n_ibQ_~r`GeadByqcA.TIF
p229
aV../data/clipData/LC80280312015160LGN00/LC80280312015160LGN00_bands_432_clipped_n_ibQ_~r`GeadByqcA.TIF
p230
aV../data/clipData/LC80280312015160LGN00/LC80280312015160LGN00_bands_321_clipped_n_ibQ_~r`GeadByqcA.TIF
p231
aV../data/clipData/LC80280312015160LGN00/LC80280312015160LGN00_NDVI_clipped_n_ibQ_~r`GeadByqcA.TIF
p232
aa(lp233
V../data/clipData/LC80280312015160LGN00/LC80280312015160LGN00_bands_432_clipped_za}fQsko~F_tpBm_cA.TIF
p234
aV../data/clipData/LC80280312015160LGN00/LC80280312015160LGN00_bands_321_clipped_za}fQsko~F_tpBm_cA.TIF
p235
aV../data/clipData/LC80280312015160LGN00/LC80280312015160LGN00_NDVI_clipped_za}fQsko~F_tpBm_cA.TIF
p236
aa(lp237
V../data/clipData/LC80270312015201LGN00/LC80270312015201LGN00_bands_432_clipped_noeeQypwbG_t{A_icA.TIF
p238
aV../data/clipData/LC80270312015201LGN00/LC80270312015201LGN00_bands_321_clipped_noeeQypwbG_t{A_icA.TIF
p239
aV../data/clipData/LC80270312015201LGN00/LC80270312015201LGN00_NDVI_clipped_noeeQypwbG_t{A_icA.TIF
p240
aV../data/clipData/LC80280302015160LGN00/LC80280302015160LGN00_bands_432_clipped_noeeQypwbG_t{A_icA.TIF
p241
aV../data/clipData/LC80280302015160LGN00/LC80280302015160LGN00_bands_321_clipped_noeeQypwbG_t{A_icA.TIF
p242
aV../data/clipData/LC80280302015160LGN00/LC80280302015160LGN00_NDVI_clipped_noeeQypwbG_t{A_icA.TIF
p243
aa(lp244
V../data/clipData/LC80280302015160LGN00/LC80280302015160LGN00_bands_432_clipped_pneeQ_g_gGys{Aw`o@.TIF
p245
aV../data/clipData/LC80280302015160LGN00/LC80280302015160LGN00_bands_321_clipped_pneeQ_g_gGys{Aw`o@.TIF
p246
aV../data/clipData/LC80280302015160LGN00/LC80280302015160LGN00_NDVI_clipped_pneeQ_g_gGys{Aw`o@.TIF
p247
aa(lp248
V../data/clipData/LC80280302015160LGN00/LC80280302015160LGN00_bands_432_clipped_vreeQsx{dG}x{AspbA.TIF
p249
aV../data/clipData/LC80280302015160LGN00/LC80280302015160LGN00_bands_321_clipped_vreeQsx{dG}x{AspbA.TIF
p250
aV../data/clipData/LC80280302015160LGN00/LC80280302015160LGN00_NDVI_clipped_vreeQsx{dG}x{AspbA.TIF
p251
aa(lp252
V../data/clipData/LC80280302015160LGN00/LC80280302015160LGN00_bands_432_clipped_dcbhQ{t{dGev{AsfcA.TIF
p253
aV../data/clipData/LC80280302015160LGN00/LC80280302015160LGN00_bands_321_clipped_dcbhQ{t{dGev{AsfcA.TIF
p254
aV../data/clipData/LC80280302015160LGN00/LC80280302015160LGN00_NDVI_clipped_dcbhQ{t{dGev{AsfcA.TIF
p255
aa(lp256
V../data/clipData/LC80280302015160LGN00/LC80280302015160LGN00_bands_432_clipped_``bhQeh_gGst{Aezn@.TIF
p257
aV../data/clipData/LC80280302015160LGN00/LC80280302015160LGN00_bands_321_clipped_``bhQeh_gGst{Aezn@.TIF
p258
aV../data/clipData/LC80280302015160LGN00/LC80280302015160LGN00_NDVI_clipped_``bhQeh_gGst{Aezn@.TIF
p259
aa(lp260
V../data/clipData/LC80280302015160LGN00/LC80280302015160LGN00_bands_432_clipped_`yahQ{rwbGem{AqhcA.TIF
p261
aV../data/clipData/LC80280302015160LGN00/LC80280302015160LGN00_bands_321_clipped_`yahQ{rwbGem{AqhcA.TIF
p262
aV../data/clipData/LC80280302015160LGN00/LC80280302015160LGN00_NDVI_clipped_`yahQ{rwbGem{AqhcA.TIF
p263
aa(lp264
V../data/clipData/LC80270302015201LGN00/LC80270302015201LGN00_bands_432_clipped_p`ibQsf_gGqh{Au`o@.TIF
p265
aV../data/clipData/LC80270302015201LGN00/LC80270302015201LGN00_bands_321_clipped_p`ibQsf_gGqh{Au`o@.TIF
p266
aV../data/clipData/LC80270302015201LGN00/LC80270302015201LGN00_NDVI_clipped_p`ibQsf_gGqh{Au`o@.TIF
p267
aV../data/clipData/LC80280302015160LGN00/LC80280302015160LGN00_bands_432_clipped_p`ibQsf_gGqh{Au`o@.TIF
p268
aV../data/clipData/LC80280302015160LGN00/LC80280302015160LGN00_bands_321_clipped_p`ibQsf_gGqh{Au`o@.TIF
p269
aV../data/clipData/LC80280302015160LGN00/LC80280302015160LGN00_NDVI_clipped_p`ibQsf_gGqh{Au`o@.TIF
p270
aa(lp271
V../data/clipData/LC80270302015201LGN00/LC80270302015201LGN00_bands_432_clipped_feibQigwbGyi{AipcA.TIF
p272
aV../data/clipData/LC80270302015201LGN00/LC80270302015201LGN00_bands_321_clipped_feibQigwbGyi{AipcA.TIF
p273
aV../data/clipData/LC80270302015201LGN00/LC80270302015201LGN00_NDVI_clipped_feibQigwbGyi{AipcA.TIF
p274
aV../data/clipData/LC80270312015201LGN00/LC80270312015201LGN00_bands_432_clipped_feibQigwbGyi{AipcA.TIF
p275
aV../data/clipData/LC80270312015201LGN00/LC80270312015201LGN00_bands_321_clipped_feibQigwbGyi{AipcA.TIF
p276
aV../data/clipData/LC80270312015201LGN00/LC80270312015201LGN00_NDVI_clipped_feibQigwbGyi{AipcA.TIF
p277
aV../data/clipData/LC80280302015160LGN00/LC80280302015160LGN00_bands_432_clipped_feibQigwbGyi{AipcA.TIF
p278
aV../data/clipData/LC80280302015160LGN00/LC80280302015160LGN00_bands_321_clipped_feibQigwbGyi{AipcA.TIF
p279
aV../data/clipData/LC80280302015160LGN00/LC80280302015160LGN00_NDVI_clipped_feibQigwbGyi{AipcA.TIF
p280
aa(lp281
V../data/clipData/LC80270302015201LGN00/LC80270302015201LGN00_bands_432_clipped_j{hbQsm{dGga{AwzbA.TIF
p282
aV../data/clipData/LC80270302015201LGN00/LC80270302015201LGN00_bands_321_clipped_j{hbQsm{dGga{AwzbA.TIF
p283
aV../data/clipData/LC80270302015201LGN00/LC80270302015201LGN00_NDVI_clipped_j{hbQsm{dGga{AwzbA.TIF
p284
aV../data/clipData/LC80280302015160LGN00/LC80280302015160LGN00_bands_432_clipped_j{hbQsm{dGga{AwzbA.TIF
p285
aV../data/clipData/LC80280302015160LGN00/LC80280302015160LGN00_bands_321_clipped_j{hbQsm{dGga{AwzbA.TIF
p286
aV../data/clipData/LC80280302015160LGN00/LC80280302015160LGN00_NDVI_clipped_j{hbQsm{dGga{AwzbA.TIF
p287
aa(lp288
V../data/clipData/LC80270302015201LGN00/LC80270302015201LGN00_bands_432_clipped_x|l_Qc_hcGqd{A_pr@.TIF
p289
aV../data/clipData/LC80270302015201LGN00/LC80270302015201LGN00_bands_321_clipped_x|l_Qc_hcGqd{A_pr@.TIF
p290
aV../data/clipData/LC80270302015201LGN00/LC80270302015201LGN00_NDVI_clipped_x|l_Qc_hcGqd{A_pr@.TIF
p291
aa(lp292
V../data/clipData/LC80270312015201LGN00/LC80270312015201LGN00_bands_432_clipped_`p{zPiio~F_gzAcubA.TIF
p293
aV../data/clipData/LC80270312015201LGN00/LC80270312015201LGN00_bands_321_clipped_`p{zPiio~F_gzAcubA.TIF
p294
aV../data/clipData/LC80270312015201LGN00/LC80270312015201LGN00_NDVI_clipped_`p{zPiio~F_gzAcubA.TIF
p295
aV../data/clipData/LC80260312015210LGN00/LC80260312015210LGN00_bands_432_clipped_`p{zPiio~F_gzAcubA.TIF
p296
aV../data/clipData/LC80260312015210LGN00/LC80260312015210LGN00_bands_321_clipped_`p{zPiio~F_gzAcubA.TIF
p297
aV../data/clipData/LC80260312015210LGN00/LC80260312015210LGN00_NDVI_clipped_`p{zPiio~F_gzAcubA.TIF
p298
aa(lp299
V../data/clipData/LC80270302015201LGN00/LC80270302015201LGN00_bands_432_clipped_|styPmzvbGut{AwucA.TIF
p300
aV../data/clipData/LC80270302015201LGN00/LC80270302015201LGN00_bands_321_clipped_|styPmzvbGut{AwucA.TIF
p301
aV../data/clipData/LC80270302015201LGN00/LC80270302015201LGN00_NDVI_clipped_|styPmzvbGut{AwucA.TIF
p302
aV../data/clipData/LC80260302015210LGN00/LC80260302015210LGN00_bands_432_clipped_|styPmzvbGut{AwucA.TIF
p303
aV../data/clipData/LC80260302015210LGN00/LC80260302015210LGN00_bands_321_clipped_|styPmzvbGut{AwucA.TIF
p304
aV../data/clipData/LC80260302015210LGN00/LC80260302015210LGN00_NDVI_clipped_|styPmzvbGut{AwucA.TIF
p305
aV../data/clipData/LC80260312015210LGN00/LC80260312015210LGN00_bands_432_clipped_|styPmzvbGut{AwucA.TIF
p306
aV../data/clipData/LC80260312015210LGN00/LC80260312015210LGN00_bands_321_clipped_|styPmzvbGut{AwucA.TIF
p307
aV../data/clipData/LC80260312015210LGN00/LC80260312015210LGN00_NDVI_clipped_|styPmzvbGut{AwucA.TIF
p308
aa(lp309
V../data/clipData/LC80250322015203LGN00/LC80250322015203LGN00_bands_432_clipped_hq|lPwqkwFqmzAwuhA.TIF
p310
aV../data/clipData/LC80250322015203LGN00/LC80250322015203LGN00_bands_321_clipped_hq|lPwqkwFqmzAwuhA.TIF
p311
aV../data/clipData/LC80250322015203LGN00/LC80250322015203LGN00_NDVI_clipped_hq|lPwqkwFqmzAwuhA.TIF
p312
aa(lp313
V../data/clipData/LC80270302015201LGN00/LC80270302015201LGN00_bands_432_clipped_fyp|Pw_wbG{j{A_rcA.TIF
p314
aV../data/clipData/LC80270302015201LGN00/LC80270302015201LGN00_bands_321_clipped_fyp|Pw_wbG{j{A_rcA.TIF
p315
aV../data/clipData/LC80270302015201LGN00/LC80270302015201LGN00_NDVI_clipped_fyp|Pw_wbG{j{A_rcA.TIF
p316
aa(lp317
V../data/clipData/LC80270312015201LGN00/LC80270312015201LGN00_bands_432_clipped_tqv}Poko~F_ezA_wbA.TIF
p318
aV../data/clipData/LC80270312015201LGN00/LC80270312015201LGN00_bands_321_clipped_tqv}Poko~F_ezA_wbA.TIF
p319
aV../data/clipData/LC80270312015201LGN00/LC80270312015201LGN00_NDVI_clipped_tqv}Poko~F_ezA_wbA.TIF
p320
aa(lp321
V../data/clipData/LC80270302015201LGN00/LC80270302015201LGN00_bands_432_clipped_|xp|Pol{dGoq{Ag}bA.TIF
p322
aV../data/clipData/LC80270302015201LGN00/LC80270302015201LGN00_bands_321_clipped_|xp|Pol{dGoq{Ag}bA.TIF
p323
aV../data/clipData/LC80270302015201LGN00/LC80270302015201LGN00_NDVI_clipped_|xp|Pol{dGoq{Ag}bA.TIF
p324
aa(lp325
V../data/clipData/LC80270302015201LGN00/LC80270302015201LGN00_bands_432_clipped_jmtyPyj{dGsz{A{~bA.TIF
p326
aV../data/clipData/LC80270302015201LGN00/LC80270302015201LGN00_bands_321_clipped_jmtyPyj{dGsz{A{~bA.TIF
p327
aV../data/clipData/LC80270302015201LGN00/LC80270302015201LGN00_NDVI_clipped_jmtyPyj{dGsz{A{~bA.TIF
p328
aV../data/clipData/LC80260302015210LGN00/LC80260302015210LGN00_bands_432_clipped_jmtyPyj{dGsz{A{~bA.TIF
p329
aV../data/clipData/LC80260302015210LGN00/LC80260302015210LGN00_bands_321_clipped_jmtyPyj{dGsz{A{~bA.TIF
p330
aV../data/clipData/LC80260302015210LGN00/LC80260302015210LGN00_NDVI_clipped_jmtyPyj{dGsz{A{~bA.TIF
p331
aa(lp332
V../data/clipData/LC80270302015201LGN00/LC80270302015201LGN00_bands_432_clipped_|sp|Pag_gGom{Acyn@.TIF
p333
aV../data/clipData/LC80270302015201LGN00/LC80270302015201LGN00_bands_321_clipped_|sp|Pag_gGom{Acyn@.TIF
p334
aV../data/clipData/LC80270302015201LGN00/LC80270302015201LGN00_NDVI_clipped_|sp|Pag_gGom{Acyn@.TIF
p335
aa(lp336
V../data/clipData/LC80270302015201LGN00/LC80270302015201LGN00_bands_432_clipped_~|l_Qol{dGgk{A{vrB.TIF
p337
aV../data/clipData/LC80270302015201LGN00/LC80270302015201LGN00_bands_321_clipped_~|l_Qol{dGgk{A{vrB.TIF
p338
aV../data/clipData/LC80270302015201LGN00/LC80270302015201LGN00_NDVI_clipped_~|l_Qol{dGgk{A{vrB.TIF
p339
aa(lp340
V../data/clipData/LC80260322015210LGN00/LC80260322015210LGN00_bands_432_clipped_t}_zP}xrxFuxxAeor@.TIF
p341
aV../data/clipData/LC80260322015210LGN00/LC80260322015210LGN00_bands_321_clipped_t}_zP}xrxFuxxAeor@.TIF
p342
aV../data/clipData/LC80260322015210LGN00/LC80260322015210LGN00_NDVI_clipped_t}_zP}xrxFuxxAeor@.TIF
p343
aa(lp344
V../data/clipData/LC80260322015210LGN00/LC80260322015210LGN00_bands_432_clipped_|z_zPuwtvFmyxAse}@.TIF
p345
aV../data/clipData/LC80260322015210LGN00/LC80260322015210LGN00_bands_321_clipped_|z_zPuwtvFmyxAse}@.TIF
p346
aV../data/clipData/LC80260322015210LGN00/LC80260322015210LGN00_NDVI_clipped_|z_zPuwtvFmyxAse}@.TIF
p347
aa(lp348
V../data/clipData/LC80250312015203LGN00/LC80250312015203LGN00_bands_432_clipped_r_tlPsk{|FkmzAqmcA.TIF
p349
aV../data/clipData/LC80250312015203LGN00/LC80250312015203LGN00_bands_321_clipped_r_tlPsk{|FkmzAqmcA.TIF
p350
aV../data/clipData/LC80250312015203LGN00/LC80250312015203LGN00_NDVI_clipped_r_tlPsk{|FkmzAqmcA.TIF
p351
aa(lp352
V../data/clipData/LC80250322015203LGN00/LC80250322015203LGN00_bands_432_clipped_lyxnP_fbxFaacAgpcA.TIF
p353
aV../data/clipData/LC80250322015203LGN00/LC80250322015203LGN00_bands_321_clipped_lyxnP_fbxFaacAgpcA.TIF
p354
aV../data/clipData/LC80250322015203LGN00/LC80250322015203LGN00_NDVI_clipped_lyxnP_fbxFaacAgpcA.TIF
p355
aa(lp356
V../data/clipData/LC80250312015203LGN00/LC80250312015203LGN00_bands_432_clipped_rjjrPikj|Fqk{Ac~cA.TIF
p357
aV../data/clipData/LC80250312015203LGN00/LC80250312015203LGN00_bands_321_clipped_rjjrPikj|Fqk{Ac~cA.TIF
p358
aV../data/clipData/LC80250312015203LGN00/LC80250312015203LGN00_NDVI_clipped_rjjrPikj|Fqk{Ac~cA.TIF
p359
aV../data/clipData/LC80260312015210LGN00/LC80260312015210LGN00_bands_432_clipped_rjjrPikj|Fqk{Ac~cA.TIF
p360
aV../data/clipData/LC80260312015210LGN00/LC80260312015210LGN00_bands_321_clipped_rjjrPikj|Fqk{Ac~cA.TIF
p361
aV../data/clipData/LC80260312015210LGN00/LC80260312015210LGN00_NDVI_clipped_rjjrPikj|Fqk{Ac~cA.TIF
p362
aa(lp363
V../data/clipData/LC80260312015210LGN00/LC80260312015210LGN00_bands_432_clipped_joeuPydj|FgtzAsddA.TIF
p364
aV../data/clipData/LC80260312015210LGN00/LC80260312015210LGN00_bands_321_clipped_joeuPydj|FgtzAsddA.TIF
p365
aV../data/clipData/LC80260312015210LGN00/LC80260312015210LGN00_NDVI_clipped_joeuPydj|FgtzAsddA.TIF
p366
aa(lp367
V../data/clipData/LC80250312015203LGN00/LC80250312015203LGN00_bands_432_clipped_hf`sPemfzFogzAkccA.TIF
p368
aV../data/clipData/LC80250312015203LGN00/LC80250312015203LGN00_bands_321_clipped_hf`sPemfzFogzAkccA.TIF
p369
aV../data/clipData/LC80250312015203LGN00/LC80250312015203LGN00_NDVI_clipped_hf`sPemfzFogzAkccA.TIF
p370
aV../data/clipData/LC80250322015203LGN00/LC80250322015203LGN00_bands_432_clipped_hf`sPemfzFogzAkccA.TIF
p371
aV../data/clipData/LC80250322015203LGN00/LC80250322015203LGN00_bands_321_clipped_hf`sPemfzFogzAkccA.TIF
p372
aV../data/clipData/LC80250322015203LGN00/LC80250322015203LGN00_NDVI_clipped_hf`sPemfzFogzAkccA.TIF
p373
aV../data/clipData/LC80260312015210LGN00/LC80260312015210LGN00_bands_432_clipped_hf`sPemfzFogzAkccA.TIF
p374
aV../data/clipData/LC80260312015210LGN00/LC80260312015210LGN00_bands_321_clipped_hf`sPemfzFogzAkccA.TIF
p375
aV../data/clipData/LC80260312015210LGN00/LC80260312015210LGN00_NDVI_clipped_hf`sPemfzFogzAkccA.TIF
p376
aa(lp377
V../data/clipData/LC80260312015210LGN00/LC80260312015210LGN00_bands_432_clipped_j}yuPsgfzFibyAcacA.TIF
p378
aV../data/clipData/LC80260312015210LGN00/LC80260312015210LGN00_bands_321_clipped_j}yuPsgfzFibyAcacA.TIF
p379
aV../data/clipData/LC80260312015210LGN00/LC80260312015210LGN00_NDVI_clipped_j}yuPsgfzFibyAcacA.TIF
p380
aa(lp381
V../data/clipData/LC80250322015203LGN00/LC80250322015203LGN00_bands_432_clipped_jqltPw{vvFk`yA{i{@.TIF
p382
aV../data/clipData/LC80250322015203LGN00/LC80250322015203LGN00_bands_321_clipped_jqltPw{vvFk`yA{i{@.TIF
p383
aV../data/clipData/LC80250322015203LGN00/LC80250322015203LGN00_NDVI_clipped_jqltPw{vvFk`yA{i{@.TIF
p384
aV../data/clipData/LC80260322015210LGN00/LC80260322015210LGN00_bands_432_clipped_jqltPw{vvFk`yA{i{@.TIF
p385
aV../data/clipData/LC80260322015210LGN00/LC80260322015210LGN00_bands_321_clipped_jqltPw{vvFk`yA{i{@.TIF
p386
aV../data/clipData/LC80260322015210LGN00/LC80260322015210LGN00_NDVI_clipped_jqltPw{vvFk`yA{i{@.TIF
p387
aa(lp388
V../data/clipData/LC80250322015203LGN00/LC80250322015203LGN00_bands_432_clipped_z{rqPsfsxFysyAaqr@.TIF
p389
aV../data/clipData/LC80250322015203LGN00/LC80250322015203LGN00_bands_321_clipped_z{rqPsfsxFysyAaqr@.TIF
p390
aV../data/clipData/LC80250322015203LGN00/LC80250322015203LGN00_NDVI_clipped_z{rqPsfsxFysyAaqr@.TIF
p391
aV../data/clipData/LC80260312015210LGN00/LC80260312015210LGN00_bands_432_clipped_z{rqPsfsxFysyAaqr@.TIF
p392
aV../data/clipData/LC80260312015210LGN00/LC80260312015210LGN00_bands_321_clipped_z{rqPsfsxFysyAaqr@.TIF
p393
aV../data/clipData/LC80260312015210LGN00/LC80260312015210LGN00_NDVI_clipped_z{rqPsfsxFysyAaqr@.TIF
p394
aV../data/clipData/LC80260322015210LGN00/LC80260322015210LGN00_bands_432_clipped_z{rqPsfsxFysyAaqr@.TIF
p395
aV../data/clipData/LC80260322015210LGN00/LC80260322015210LGN00_bands_321_clipped_z{rqPsfsxFysyAaqr@.TIF
p396
aV../data/clipData/LC80260322015210LGN00/LC80260322015210LGN00_NDVI_clipped_z{rqPsfsxFysyAaqr@.TIF
p397
aa(lp398
V../data/clipData/LC80260302015210LGN00/LC80260302015210LGN00_bands_432_clipped_tixvPytvbGyi{AgucA.TIF
p399
aV../data/clipData/LC80260302015210LGN00/LC80260302015210LGN00_bands_321_clipped_tixvPytvbGyi{AgucA.TIF
p400
aV../data/clipData/LC80260302015210LGN00/LC80260302015210LGN00_NDVI_clipped_tixvPytvbGyi{AgucA.TIF
p401
aa(lp402
V../data/clipData/LC80270302015201LGN00/LC80270302015201LGN00_bands_432_clipped_d~wvPch{dGi_{A_wz@.TIF
p403
aV../data/clipData/LC80270302015201LGN00/LC80270302015201LGN00_bands_321_clipped_d~wvPch{dGi_{A_wz@.TIF
p404
aV../data/clipData/LC80270302015201LGN00/LC80270302015201LGN00_NDVI_clipped_d~wvPch{dGi_{A_wz@.TIF
p405
aV../data/clipData/LC80260302015210LGN00/LC80260302015210LGN00_bands_432_clipped_d~wvPch{dGi_{A_wz@.TIF
p406
aV../data/clipData/LC80260302015210LGN00/LC80260302015210LGN00_bands_321_clipped_d~wvPch{dGi_{A_wz@.TIF
p407
aV../data/clipData/LC80260302015210LGN00/LC80260302015210LGN00_NDVI_clipped_d~wvPch{dGi_{A_wz@.TIF
p408
aa(lp409
V../data/clipData/LC80250322015203LGN00/LC80250322015203LGN00_bands_432_clipped_|wltPaasxFw`yAoor@.TIF
p410
aV../data/clipData/LC80250322015203LGN00/LC80250322015203LGN00_bands_321_clipped_|wltPaasxFw`yAoor@.TIF
p411
aV../data/clipData/LC80250322015203LGN00/LC80250322015203LGN00_NDVI_clipped_|wltPaasxFw`yAoor@.TIF
p412
aV../data/clipData/LC80260322015210LGN00/LC80260322015210LGN00_bands_432_clipped_|wltPaasxFw`yAoor@.TIF
p413
aV../data/clipData/LC80260322015210LGN00/LC80260322015210LGN00_bands_321_clipped_|wltPaasxFw`yAoor@.TIF
p414
aV../data/clipData/LC80260322015210LGN00/LC80260322015210LGN00_NDVI_clipped_|wltPaasxFw`yAoor@.TIF
p415
aa(lp416
V../data/clipData/LC80250322015203LGN00/LC80250322015203LGN00_bands_432_clipped_bzrqP_kxvFunyAqdz@.TIF
p417
aV../data/clipData/LC80250322015203LGN00/LC80250322015203LGN00_bands_321_clipped_bzrqP_kxvFunyAqdz@.TIF
p418
aV../data/clipData/LC80250322015203LGN00/LC80250322015203LGN00_NDVI_clipped_bzrqP_kxvFunyAqdz@.TIF
p419
aa(lp420
V../data/clipData/LC80260312015210LGN00/LC80260312015210LGN00_bands_432_clipped_hweuPweo~Fk}zAy_tA.TIF
p421
aV../data/clipData/LC80260312015210LGN00/LC80260312015210LGN00_bands_321_clipped_hweuPweo~Fk}zAy_tA.TIF
p422
aV../data/clipData/LC80260312015210LGN00/LC80260312015210LGN00_NDVI_clipped_hweuPweo~Fk}zAy_tA.TIF
p423
aa(lp424
V../data/clipData/LC80250312015203LGN00/LC80250312015203LGN00_bands_432_clipped_fqooPwun~Fyd{AkytA.TIF
p425
aV../data/clipData/LC80250312015203LGN00/LC80250312015203LGN00_bands_321_clipped_fqooPwun~Fyd{AkytA.TIF
p426
aV../data/clipData/LC80250312015203LGN00/LC80250312015203LGN00_NDVI_clipped_fqooPwun~Fyd{AkytA.TIF
p427
aV../data/clipData/LC80260312015210LGN00/LC80260312015210LGN00_bands_432_clipped_fqooPwun~Fyd{AkytA.TIF
p428
aV../data/clipData/LC80260312015210LGN00/LC80260312015210LGN00_bands_321_clipped_fqooPwun~Fyd{AkytA.TIF
p429
aV../data/clipData/LC80260312015210LGN00/LC80260312015210LGN00_NDVI_clipped_fqooPwun~Fyd{AkytA.TIF
p430
aa(lp431
V../data/clipData/LC80250312015203LGN00/LC80250312015203LGN00_bands_432_clipped_lejrPcbo~FcmzA_mtA.TIF
p432
aV../data/clipData/LC80250312015203LGN00/LC80250312015203LGN00_bands_321_clipped_lejrPcbo~FcmzA_mtA.TIF
p433
aV../data/clipData/LC80250312015203LGN00/LC80250312015203LGN00_NDVI_clipped_lejrPcbo~FcmzA_mtA.TIF
p434
aV../data/clipData/LC80260312015210LGN00/LC80260312015210LGN00_bands_432_clipped_lejrPcbo~FcmzA_mtA.TIF
p435
aV../data/clipData/LC80260312015210LGN00/LC80260312015210LGN00_bands_321_clipped_lejrPcbo~FcmzA_mtA.TIF
p436
aV../data/clipData/LC80260312015210LGN00/LC80260312015210LGN00_NDVI_clipped_lejrPcbo~FcmzA_mtA.TIF
p437
aa(lp438
V../data/clipData/LC80250312015203LGN00/LC80250312015203LGN00_bands_432_clipped_`sxiPs|t}FsbsCiwz@.TIF
p439
aV../data/clipData/LC80250312015203LGN00/LC80250312015203LGN00_bands_321_clipped_`sxiPs|t}FsbsCiwz@.TIF
p440
aV../data/clipData/LC80250312015203LGN00/LC80250312015203LGN00_NDVI_clipped_`sxiPs|t}FsbsCiwz@.TIF
p441
aV../data/clipData/LC80240312015212LGN00/LC80240312015212LGN00_bands_432_clipped_`sxiPs|t}FsbsCiwz@.TIF
p442
aV../data/clipData/LC80240312015212LGN00/LC80240312015212LGN00_bands_321_clipped_`sxiPs|t}FsbsCiwz@.TIF
p443
aV../data/clipData/LC80240312015212LGN00/LC80240312015212LGN00_NDVI_clipped_`sxiPs|t}FsbsCiwz@.TIF
p444
aa(lp445
V../data/clipData/LC80250312015203LGN00/LC80250312015203LGN00_bands_432_clipped_p{slP_s__GckzA_lcA.TIF
p446
aV../data/clipData/LC80250312015203LGN00/LC80250312015203LGN00_bands_321_clipped_p{slP_s__GckzA_lcA.TIF
p447
aV../data/clipData/LC80250312015203LGN00/LC80250312015203LGN00_NDVI_clipped_p{slP_s__GckzA_lcA.TIF
p448
aa(lp449
V../data/clipData/LC80250312015203LGN00/LC80250312015203LGN00_bands_432_clipped_`rxiPuop_G_jpC{fcA.TIF
p450
aV../data/clipData/LC80250312015203LGN00/LC80250312015203LGN00_bands_321_clipped_`rxiPuop_G_jpC{fcA.TIF
p451
aV../data/clipData/LC80250312015203LGN00/LC80250312015203LGN00_NDVI_clipped_`rxiPuop_G_jpC{fcA.TIF
p452
aV../data/clipData/LC80240312015212LGN00/LC80240312015212LGN00_bands_432_clipped_`rxiPuop_G_jpC{fcA.TIF
p453
aV../data/clipData/LC80240312015212LGN00/LC80240312015212LGN00_bands_321_clipped_`rxiPuop_G_jpC{fcA.TIF
p454
aV../data/clipData/LC80240312015212LGN00/LC80240312015212LGN00_NDVI_clipped_`rxiPuop_G_jpC{fcA.TIF
p455
aa(lp456
V../data/clipData/LC80250302015139LGN00/LC80250302015139LGN00_bands_432_clipped_xbcnP{{gcGkxiCgotA.TIF
p457
aV../data/clipData/LC80250302015139LGN00/LC80250302015139LGN00_bands_321_clipped_xbcnP{{gcGkxiCgotA.TIF
p458
aV../data/clipData/LC80250302015139LGN00/LC80250302015139LGN00_NDVI_clipped_xbcnP{{gcGkxiCgotA.TIF
p459
aV../data/clipData/LC80260302015210LGN00/LC80260302015210LGN00_bands_432_clipped_xbcnP{{gcGkxiCgotA.TIF
p460
aV../data/clipData/LC80260302015210LGN00/LC80260302015210LGN00_bands_321_clipped_xbcnP{{gcGkxiCgotA.TIF
p461
aV../data/clipData/LC80260302015210LGN00/LC80260302015210LGN00_NDVI_clipped_xbcnP{{gcGkxiCgotA.TIF
p462
aa(lp463
V../data/clipData/LC80250312015203LGN00/LC80250312015203LGN00_bands_432_clipped_jufkP{tcaG{}_CshiA.TIF
p464
aV../data/clipData/LC80250312015203LGN00/LC80250312015203LGN00_bands_321_clipped_jufkP{tcaG{}_CshiA.TIF
p465
aV../data/clipData/LC80250312015203LGN00/LC80250312015203LGN00_NDVI_clipped_jufkP{tcaG{}_CshiA.TIF
p466
aa(lp467
V../data/clipData/LC80260322015210LGN00/LC80260322015210LGN00_bands_432_clipped_bmfwPy}rxFwzxAckr@.TIF
p468
aV../data/clipData/LC80260322015210LGN00/LC80260322015210LGN00_bands_321_clipped_bmfwPy}rxFwzxAckr@.TIF
p469
aV../data/clipData/LC80260322015210LGN00/LC80260322015210LGN00_NDVI_clipped_bmfwPy}rxFwzxAckr@.TIF
p470
aa(lp471
V../data/clipData/LC80260312015210LGN00/LC80260312015210LGN00_bands_432_clipped_|esxPkefzF{qxAa}bA.TIF
p472
aV../data/clipData/LC80260312015210LGN00/LC80260312015210LGN00_bands_321_clipped_|esxPkefzF{qxAa}bA.TIF
p473
aV../data/clipData/LC80260312015210LGN00/LC80260312015210LGN00_NDVI_clipped_|esxPkefzF{qxAa}bA.TIF
p474
aa(lp475
V../data/clipData/LC80260312015210LGN00/LC80260312015210LGN00_bands_432_clipped_bdwxPm~i|FesrB_ldA.TIF
p476
aV../data/clipData/LC80260312015210LGN00/LC80260312015210LGN00_bands_321_clipped_bdwxPm~i|FesrB_ldA.TIF
p477
aV../data/clipData/LC80260312015210LGN00/LC80260312015210LGN00_NDVI_clipped_bdwxPm~i|FesrB_ldA.TIF
p478
aa(lp479
V../data/clipData/LC80260312015210LGN00/LC80260312015210LGN00_bands_432_clipped_`j`xPefo~Fy`zAs}bA.TIF
p480
aV../data/clipData/LC80260312015210LGN00/LC80260312015210LGN00_bands_321_clipped_`j`xPefo~Fy`zAs}bA.TIF
p481
aV../data/clipData/LC80260312015210LGN00/LC80260312015210LGN00_NDVI_clipped_`j`xPefo~Fy`zAs}bA.TIF
p482
aa(lp483
V../data/clipData/LC80260322015210LGN00/LC80260322015210LGN00_bands_432_clipped_`dfwPopuvFgyxAwp|@.TIF
p484
aV../data/clipData/LC80260322015210LGN00/LC80260322015210LGN00_bands_321_clipped_`dfwPopuvFgyxAwp|@.TIF
p485
aV../data/clipData/LC80260322015210LGN00/LC80260322015210LGN00_NDVI_clipped_`dfwPopuvFgyxAwp|@.TIF
p486
aa(lp487
V../data/clipData/LC80270312015201LGN00/LC80270312015201LGN00_bands_432_clipped_hstyPs{r`G_g`B{ccA.TIF
p488
aV../data/clipData/LC80270312015201LGN00/LC80270312015201LGN00_bands_321_clipped_hstyPs{r`G_g`B{ccA.TIF
p489
aV../data/clipData/LC80270312015201LGN00/LC80270312015201LGN00_NDVI_clipped_hstyPs{r`G_g`B{ccA.TIF
p490
aV../data/clipData/LC80260312015210LGN00/LC80260312015210LGN00_bands_432_clipped_hstyPs{r`G_g`B{ccA.TIF
p491
aV../data/clipData/LC80260312015210LGN00/LC80260312015210LGN00_bands_321_clipped_hstyPs{r`G_g`B{ccA.TIF
p492
aV../data/clipData/LC80260312015210LGN00/LC80260312015210LGN00_NDVI_clipped_hstyPs{r`G_g`B{ccA.TIF
p493
aa(lp494
V../data/clipData/LC80250302015139LGN00/LC80250302015139LGN00_bands_432_clipped_fw_qPmngcGca|AsbuA.TIF
p495
aV../data/clipData/LC80250302015139LGN00/LC80250302015139LGN00_bands_321_clipped_fw_qPmngcGca|AsbuA.TIF
p496
aV../data/clipData/LC80250302015139LGN00/LC80250302015139LGN00_NDVI_clipped_fw_qPmngcGca|AsbuA.TIF
p497
aV../data/clipData/LC80260302015210LGN00/LC80260302015210LGN00_bands_432_clipped_fw_qPmngcGca|AsbuA.TIF
p498
aV../data/clipData/LC80260302015210LGN00/LC80260302015210LGN00_bands_321_clipped_fw_qPmngcGca|AsbuA.TIF
p499
aV../data/clipData/LC80260302015210LGN00/LC80260302015210LGN00_NDVI_clipped_fw_qPmngcGca|AsbuA.TIF
p500
aa(lp501
V../data/clipData/LC80260302015210LGN00/LC80260302015210LGN00_bands_432_clipped_t`|sPk~vfGgu{Aqgw@.TIF
p502
aV../data/clipData/LC80260302015210LGN00/LC80260302015210LGN00_bands_321_clipped_t`|sPk~vfGgu{Aqgw@.TIF
p503
aV../data/clipData/LC80260302015210LGN00/LC80260302015210LGN00_NDVI_clipped_t`|sPk~vfGgu{Aqgw@.TIF
p504
aa(lp505
V../data/clipData/LC80260302015210LGN00/LC80260302015210LGN00_bands_432_clipped_p`|sPsogcG{j{Aywr@.TIF
p506
aV../data/clipData/LC80260302015210LGN00/LC80260302015210LGN00_bands_321_clipped_p`|sPsogcG{j{Aywr@.TIF
p507
aV../data/clipData/LC80260302015210LGN00/LC80260302015210LGN00_NDVI_clipped_p`|sPsogcG{j{Aywr@.TIF
p508
aa(lp509
V../data/clipData/LC80250312015203LGN00/LC80250312015203LGN00_bands_432_clipped_fx_qPe_daGaw}Au{bA.TIF
p510
aV../data/clipData/LC80250312015203LGN00/LC80250312015203LGN00_bands_321_clipped_fx_qPe_daGaw}Au{bA.TIF
p511
aV../data/clipData/LC80250312015203LGN00/LC80250312015203LGN00_NDVI_clipped_fx_qPe_daGaw}Au{bA.TIF
p512
aV../data/clipData/LC80260312015210LGN00/LC80260312015210LGN00_bands_432_clipped_fx_qPe_daGaw}Au{bA.TIF
p513
aV../data/clipData/LC80260312015210LGN00/LC80260312015210LGN00_bands_321_clipped_fx_qPe_daGaw}Au{bA.TIF
p514
aV../data/clipData/LC80260312015210LGN00/LC80260312015210LGN00_NDVI_clipped_fx_qPe_daGaw}Au{bA.TIF
p515
aa(lp516
V../data/clipData/LC80260312015210LGN00/LC80260312015210LGN00_bands_432_clipped_|`|sPkcdaGqw~AmmbA.TIF
p517
aV../data/clipData/LC80260312015210LGN00/LC80260312015210LGN00_bands_321_clipped_|`|sPkcdaGqw~AmmbA.TIF
p518
aV../data/clipData/LC80260312015210LGN00/LC80260312015210LGN00_NDVI_clipped_|`|sPkcdaGqw~AmmbA.TIF
p519
aa(lp520
V../data/clipData/LC80250312015203LGN00/LC80250312015203LGN00_bands_432_clipped_rkcnPm{caGgo|A}kcA.TIF
p521
aV../data/clipData/LC80250312015203LGN00/LC80250312015203LGN00_bands_321_clipped_rkcnPm{caGgo|A}kcA.TIF
p522
aV../data/clipData/LC80250312015203LGN00/LC80250312015203LGN00_NDVI_clipped_rkcnPm{caGgo|A}kcA.TIF
p523
aa(lp524
V../data/clipData/LC80260312015210LGN00/LC80260312015210LGN00_bands_432_clipped_|ixvP__s`Gsk_Bc{bA.TIF
p525
aV../data/clipData/LC80260312015210LGN00/LC80260312015210LGN00_bands_321_clipped_|ixvP__s`Gsk_Bc{bA.TIF
p526
aV../data/clipData/LC80260312015210LGN00/LC80260312015210LGN00_NDVI_clipped_|ixvP__s`Gsk_Bc{bA.TIF
p527
aa(lp528
V../data/clipData/LC80270302015201LGN00/LC80270302015201LGN00_bands_432_clipped_pgtyP{f_gGep{Aoxn@.TIF
p529
aV../data/clipData/LC80270302015201LGN00/LC80270302015201LGN00_bands_321_clipped_pgtyP{f_gGep{Aoxn@.TIF
p530
aV../data/clipData/LC80270302015201LGN00/LC80270302015201LGN00_NDVI_clipped_pgtyP{f_gGep{Aoxn@.TIF
p531
aV../data/clipData/LC80260302015210LGN00/LC80260302015210LGN00_bands_432_clipped_pgtyP{f_gGep{Aoxn@.TIF
p532
aV../data/clipData/LC80260302015210LGN00/LC80260302015210LGN00_bands_321_clipped_pgtyP{f_gGep{Aoxn@.TIF
p533
aV../data/clipData/LC80260302015210LGN00/LC80260302015210LGN00_NDVI_clipped_pgtyP{f_gGep{Aoxn@.TIF
p534
aa(lp535
V../data/clipData/LC80270302015201LGN00/LC80270302015201LGN00_bands_432_clipped_dzwvPa}vfGca{Aqew@.TIF
p536
aV../data/clipData/LC80270302015201LGN00/LC80270302015201LGN00_bands_321_clipped_dzwvPa}vfGca{Aqew@.TIF
p537
aV../data/clipData/LC80270302015201LGN00/LC80270302015201LGN00_NDVI_clipped_dzwvPa}vfGca{Aqew@.TIF
p538
aV../data/clipData/LC80260302015210LGN00/LC80260302015210LGN00_bands_432_clipped_dzwvPa}vfGca{Aqew@.TIF
p539
aV../data/clipData/LC80260302015210LGN00/LC80260302015210LGN00_bands_321_clipped_dzwvPa}vfGca{Aqew@.TIF
p540
aV../data/clipData/LC80260302015210LGN00/LC80260302015210LGN00_NDVI_clipped_dzwvPa}vfGca{Aqew@.TIF
p541
aa(lp542
V../data/clipData/LC80250302015139LGN00/LC80250302015139LGN00_bands_432_clipped_|wcnP{b}eGk`kBkbqA.TIF
p543
aV../data/clipData/LC80250302015139LGN00/LC80250302015139LGN00_bands_321_clipped_|wcnP{b}eGk`kBkbqA.TIF
p544
aV../data/clipData/LC80250302015139LGN00/LC80250302015139LGN00_NDVI_clipped_|wcnP{b}eGk`kBkbqA.TIF
p545
aV../data/clipData/LC80260302015210LGN00/LC80260302015210LGN00_bands_432_clipped_|wcnP{b}eGk`kBkbqA.TIF
p546
aV../data/clipData/LC80260302015210LGN00/LC80260302015210LGN00_bands_321_clipped_|wcnP{b}eGk`kBkbqA.TIF
p547
aV../data/clipData/LC80260302015210LGN00/LC80260302015210LGN00_NDVI_clipped_|wcnP{b}eGk`kBkbqA.TIF
p548
aa(lp549
V../data/clipData/LC80250302015139LGN00/LC80250302015139LGN00_bands_432_clipped_zr_qPcl}eGqe|A_zpA.TIF
p550
aV../data/clipData/LC80250302015139LGN00/LC80250302015139LGN00_bands_321_clipped_zr_qPcl}eGqe|A_zpA.TIF
p551
aV../data/clipData/LC80250302015139LGN00/LC80250302015139LGN00_NDVI_clipped_zr_qPcl}eGqe|A_zpA.TIF
p552
aV../data/clipData/LC80260302015210LGN00/LC80260302015210LGN00_bands_432_clipped_zr_qPcl}eGqe|A_zpA.TIF
p553
aV../data/clipData/LC80260302015210LGN00/LC80260302015210LGN00_bands_321_clipped_zr_qPcl}eGqe|A_zpA.TIF
p554
aV../data/clipData/LC80260302015210LGN00/LC80260302015210LGN00_NDVI_clipped_zr_qPcl}eGqe|A_zpA.TIF
p555
aa(lp556
V../data/clipData/LC80260302015210LGN00/LC80260302015210LGN00_bands_432_clipped_p`|sP_f{dGmo{Au}z@.TIF
p557
aV../data/clipData/LC80260302015210LGN00/LC80260302015210LGN00_bands_321_clipped_p`|sP_f{dGmo{Au}z@.TIF
p558
aV../data/clipData/LC80260302015210LGN00/LC80260302015210LGN00_NDVI_clipped_p`|sP_f{dGmo{Au}z@.TIF
p559
aa.